HI-TECH Software C Compiler 

Linker command line:

--edf=C:\Program Files\HI-TECH Software\PICC\9.83\dat\en_msgs.txt -cs \
  -h+RFDK_RFM98_V2.1.sym -z -Q16F1519 -ol.obj -MRFDK_RFM98_V2.1.map -E1 \
  -ACONST=00h-0FFhx64 -ACODE=00h-07FFhx8 -ASTRCODE=00h-03FFFh \
  -AENTRY=00h-0FFhx64 -ASTRING=00h-0FFhx64 -ABANK0=020h-06Fh \
  -ABANK1=0A0h-0EFh -ABANK2=0120h-016Fh -ABANK3=01A0h-01EFh \
  -ABANK4=0220h-026Fh -ABANK5=02A0h-02EFh -ABANK6=0320h-036Fh \
  -ABANK7=03A0h-03EFh -ABANK8=0420h-046Fh -ABANK9=04A0h-04EFh \
  -ABANK10=0520h-056Fh -ABANK11=05A0h-05EFh -ABANK12=0620h-064Fh \
  -ABIGRAM=02000h-023EFh \
  -ARAM=020h-06Fh,0A0h-0EFh,0120h-016Fh,01A0h-01EFh,0220h-026Fh,02A0h-02EFh,0320h-036Fh,03A0h-03EFh,0420h-046Fh,04A0h-04EFh,0520h-056Fh,05A0h-05EFh,0620h-064Fh \
  -AABS1=020h-07Fh,0A0h-0EFh,0120h-016Fh,01A0h-01EFh,0220h-026Fh,02A0h-02EFh,0320h-036Fh,03A0h-03EFh,0420h-046Fh,04A0h-04EFh,0520h-056Fh,05A0h-05EFh,0620h-064Fh \
  -ACOMMON=070h-07Fh -ASFR0=00h-01Fh -ASFR1=080h-09Fh -ASFR2=0100h-011Fh \
  -ASFR3=0180h-019Fh -ASFR4=0200h-021Fh -ASFR5=0280h-029Fh \
  -ASFR6=0300h-031Fh -ASFR7=0380h-039Fh -ASFR8=0400h-041Fh \
  -ASFR9=0480h-049Fh -ASFR10=0500h-051Fh -ASFR11=0580h-059Fh \
  -ASFR12=0600h-061Fh -ASFR13=0680h-06EFh -ASFR14=0700h-076Fh \
  -ASFR15=0780h-07EFh -ASFR16=0800h-086Fh -ASFR17=0880h-08EFh \
  -ASFR18=0900h-096Fh -ASFR19=0980h-09EFh -ASFR20=0A00h-0A6Fh \
  -ASFR21=0A80h-0AEFh -ASFR22=0B00h-0B6Fh -ASFR23=0B80h-0BEFh \
  -ASFR24=0C00h-0C6Fh -ASFR25=0C80h-0CEFh -ASFR26=0D00h-0D6Fh \
  -ASFR27=0D80h-0DEFh -ASFR28=0E00h-0E6Fh -ASFR29=0E80h-0EEFh \
  -ASFR30=0F00h-0F6Fh -ASFR31=0F80h-0FEFh \
  -preset_vec=00h,intentry=04h,init,end_init -ppowerup=CODE -pfunctab=CODE \
  -ACONFIG=08007h-08008h -pconfig=CONFIG -DCONFIG=2 -AIDLOC=08000h-08003h \
  -pidloc=IDLOC -DIDLOC=2 -DCODE=2 -DSTRCODE=2 -DSTRING=2 -DCONST=2 \
  -DENTRY=2 -k startup.obj RFDK_RFM98_V2.1.obj 

Object code version is 3.10

Machine type is 16F1519



                Name                               Link     Load   Length Selector   Space Scale
startup.obj     end_init                             96       96        3        8       0
                reset_vec                             0        0        2        0       0
RFDK_RFM98_V2.1.obj
                intentry                              4        4       92        8       0
                config                             8007     8007        1    1000E       0
                text2223                            7D8      7D8        7      FB0       0
                swtext1                             7C4      7C4       14      F88       0
                text2215                           12F0     12F0      135     25E0       0
                text2176                            A2F      A2F      5D1     145E       0
                text2165                           11D1     11D1      11F     23A2       0
                text2160                           1425     1425      3DB     284A       0
                text2152                            89D      89D      192     113A       0
                cstackBANK0                          60       60       10       20       1
                cstackCOMMON                         70       70        A       70       1
                cstackBANK1                          E4       E4        2       A0       1
                clrtext                             7DF      7DF        6      FB0       0
                bssBANK3                            1A0      1A0       3C      1A0       1
                bssBANK2                            120      120       20      120       1
                bssBANK1                             A0       A0       44       A0       1
                bssBANK0                             20       20       40       20       1
                bssCOMMON                            7A       7A        2       70       1
                cinit                                99       99      72B        8       0
                stringtext                         1800     1800      1F9       30       0

TOTAL           Name                               Link     Load   Length     Space
        CLASS   CONST          
                swtext1                             7C4      7C4       14         0

        CLASS   CODE           
                end_init                             96       96        3         0
                intentry                              4        4       92         0
                reset_vec                             0        0        2         0
                text2223                            7D8      7D8        7         0
                text2215                           12F0     12F0      135         0
                text2176                            A2F      A2F      5D1         0
                text2165                           11D1     11D1      11F         0
                text2160                           1425     1425      3DB         0
                text2152                            89D      89D      192         0
                clrtext                             7DF      7DF        6         0
                cinit                                99       99      72B         0

        CLASS   STRCODE        
                stringtext                         1800     1800      1F9         0

        CLASS   ENTRY          

        CLASS   STRING         

        CLASS   BANK0          
                cstackBANK0                          60       60       10         1
                bssBANK0                             20       20       40         1

        CLASS   BANK1          
                cstackBANK1                          E4       E4        2         1
                bssBANK1                             A0       A0       44         1

        CLASS   BANK2          
                bssBANK2                            120      120       20         1

        CLASS   BANK3          
                bssBANK3                            1A0      1A0       3C         1

        CLASS   BANK4          

        CLASS   BANK5          

        CLASS   BANK6          

        CLASS   BANK7          

        CLASS   BANK8          

        CLASS   BANK9          

        CLASS   BANK10         

        CLASS   BANK11         

        CLASS   BANK12         

        CLASS   BIGRAM         

        CLASS   RAM            

        CLASS   ABS1           
                abs_s1                               7E       7E        2         1

        CLASS   COMMON         
                cstackCOMMON                         70       70        A         1
                bssCOMMON                            7A       7A        2         1

        CLASS   SFR0           

        CLASS   SFR1           

        CLASS   SFR2           

        CLASS   SFR3           

        CLASS   SFR4           

        CLASS   SFR5           

        CLASS   SFR6           

        CLASS   SFR7           

        CLASS   SFR8           

        CLASS   SFR9           

        CLASS   SFR10          

        CLASS   SFR11          

        CLASS   SFR12          

        CLASS   SFR13          

        CLASS   SFR14          

        CLASS   SFR15          

        CLASS   SFR16          

        CLASS   SFR17          

        CLASS   SFR18          

        CLASS   SFR19          

        CLASS   SFR20          

        CLASS   SFR21          

        CLASS   SFR22          

        CLASS   SFR23          

        CLASS   SFR24          

        CLASS   SFR25          

        CLASS   SFR26          

        CLASS   SFR27          

        CLASS   SFR28          

        CLASS   SFR29          

        CLASS   SFR30          

        CLASS   SFR31          

        CLASS   CONFIG         
                config                             8007     8007        1         0

        CLASS   IDLOC          

        CLASS   BANK31         

        CLASS   BANK30         

        CLASS   BANK29         

        CLASS   BANK28         

        CLASS   BANK27         

        CLASS   BANK26         

        CLASS   BANK25         

        CLASS   BANK24         

        CLASS   BANK23         

        CLASS   BANK22         

        CLASS   BANK21         

        CLASS   BANK20         

        CLASS   BANK19         

        CLASS   BANK18         

        CLASS   BANK17         

        CLASS   BANK16         

        CLASS   BANK15         

        CLASS   BANK14         

        CLASS   BANK13         

        CLASS   EEDATA         



SEGMENTS        Name                           Load    Length   Top    Selector   Space  Class     Delta

                reset_vec                      000000  000002  000002         0       0  CODE        2
                intentry                       000004  0007C0  0007C4         8       0  CODE        2
                bssBANK0                       000020  000050  000070        20       1  BANK0       1
                cstackCOMMON                   000070  00000C  00007C        70       1  COMMON      1
                bssBANK1                       0000A0  000046  0000E6        A0       1  BANK1       1
                bssBANK2                       000120  000020  000140       120       1  BANK2       1
                bssBANK3                       0001A0  00003C  0001DC       1A0       1  BANK3       1
                swtext1                        0007C4  000014  0007D8       F88       0  CONST       2
                text2223                       0007D8  00000D  0007E5       FB0       0  CODE        2
                text2152                       00089D  000192  000A2F      113A       0  CODE        2
                text2176                       000A2F  0005D1  001000      145E       0  CODE        2
                text2165                       0011D1  00011F  0012F0      23A2       0  CODE        2
                text2215                       0012F0  000135  001425      25E0       0  CODE        2
                text2160                       001425  0003DB  001800      284A       0  CODE        2
                stringtext                     001800  0001F9  0019F9        30       0  STRCODE     2
                config                         008007  000001  008008     1000E       0  CONFIG      2


UNUSED ADDRESS RANGES

        Name                Unused          Largest block    Delta
        BANK1            000E6-000EF               A           1
        BANK10           00520-0056F              50           1
        BANK11           005A0-005EF              50           1
        BANK12           00620-0064F              30           1
        BANK2            00140-0016F              30           1
        BANK3            001DC-001EF              14           1
        BANK4            00220-0026F              50           1
        BANK5            002A0-002EF              50           1
        BANK6            00320-0036F              50           1
        BANK7            003A0-003EF              50           1
        BANK8            00420-0046F              50           1
        BANK9            004A0-004EF              50           1
        BIGRAM           02000-023EF             3F0           1
        CODE             00002-00003               2           2
                         007E5-0089C              1B
                         01000-011D0             1D1
                         019F9-03FFF             800
        COMMON           0007C-0007D               2           1
        CONFIG           08008-08008               1           2
        CONST            00002-00003               2           2
                         007E5-0089C              1B
                         01000-011D0             100
                         019F9-03FFF             100
        ENTRY            00002-00003               2           2
                         007E5-0089C              1B
                         01000-011D0             100
                         019F9-03FFF             100
        IDLOC            08000-08003               4           2
        RAM              000E6-000EF               A           1
                         00140-0016F              30
                         001DC-001EF              14
                         00220-0026F              50
                         002A0-002EF              50
                         00320-0036F              50
                         003A0-003EF              50
                         00420-0046F              50
                         004A0-004EF              50
                         00520-0056F              50
                         005A0-005EF              50
                         00620-0064F              30
        SFR0             00000-0001F              20           1
        SFR1             00080-0009F              20           1
        SFR10            00500-0051F              20           1
        SFR11            00580-0059F              20           1
        SFR12            00600-0061F              20           1
        SFR13            00680-006EF              70           1
        SFR14            00700-0076F              70           1
        SFR15            00780-007EF              70           1
        SFR16            00800-0086F              70           1
        SFR17            00880-008EF              70           1
        SFR18            00900-0096F              70           1
        SFR19            00980-009EF              70           1
        SFR2             00100-0011F              20           1
        SFR20            00A00-00A6F              70           1
        SFR21            00A80-00AEF              70           1
        SFR22            00B00-00B6F              70           1
        SFR23            00B80-00BEF              70           1
        SFR24            00C00-00C6F              70           1
        SFR25            00C80-00CEF              70           1
        SFR26            00D00-00D6F              70           1
        SFR27            00D80-00DEF              70           1
        SFR28            00E00-00E6F              70           1
        SFR29            00E80-00EEF              70           1
        SFR3             00180-0019F              20           1
        SFR30            00F00-00F6F              70           1
        SFR31            00F80-00FEF              70           1
        SFR4             00200-0021F              20           1
        SFR5             00280-0029F              20           1
        SFR6             00300-0031F              20           1
        SFR7             00380-0039F              20           1
        SFR8             00400-0041F              20           1
        SFR9             00480-0049F              20           1
        STRCODE          00002-00003               2           2
                         007E5-0089C              B8
                         01000-011D0             1D1
                         019F9-03FFF            2607
        STRING           00002-00003               2           2
                         007E5-0089C              1B
                         01000-011D0             100
                         019F9-03FFF             100

                                  Symbol Table

??_AsciiToDisplay                    cstackCOMMON 00072
??_BeepOff                           cstackCOMMON 00072
??_BeepOn                            cstackCOMMON 00074
??_BurstWrite                        cstackCOMMON 00077
??_CK1622_WriteByte                  cstackCOMMON 00073
??_CK1622_WriteCmd                   cstackCOMMON 00072
??_Clr_LCD                           cstackCOMMON 00077
??_Delay_ms                          cstackCOMMON 00076
??_DisplayRFParameter                cstackBANK0  00069
??_FlashDisplay                      cstackCOMMON 00072
??_FlashErase                        cstackCOMMON 00076
??_FlashRead                         cstackCOMMON 00077
??_FlashUnlock                       cstackCOMMON 00072
??_FlashWrite                        cstackCOMMON 00077
??_ISR_timer                         cstackCOMMON 00070
??_InitPort                          cstackCOMMON 00072
??_InitSfr                           cstackCOMMON 00072
??_InitSystemParameter               cstackCOMMON 00072
??_KeyRead                           cstackCOMMON 00072
??_KeyScan                           cstackCOMMON 00073
??_LCD_Display                       cstackCOMMON 00077
??_LCD_DisplayAll                    cstackCOMMON 00072
??_LCD_Init                          cstackCOMMON 00079
??_MenuConfig                        cstackCOMMON 0007A
??_ModemSelect                       cstackBANK0  00060
??_ModuleSelectModeEntryCheck        cstackCOMMON 00079
??_PowerOnMusic                      cstackCOMMON 0007A
??_PowerUpDelay                      cstackCOMMON 0007A
??_RFM98_Config                      cstackCOMMON 00078
??_RFM98_EntryLoRa                   cstackCOMMON 00078
??_RFM98_EntryTestRx                 cstackCOMMON 0007A
??_RFM98_EntryTestTx                 cstackCOMMON 0007A
??_RFM98_FSKRxWaitStable             cstackCOMMON 00076
??_RFM98_FSKTxWaitStable             cstackCOMMON 00076
??_RFM98_FskClearFIFO                cstackCOMMON 00078
??_RFM98_FskEntryRx                  cstackBANK0  00063
??_RFM98_FskEntryTx                  cstackBANK0  00063
??_RFM98_FskRxPacket                 cstackCOMMON 00079
??_RFM98_FskTxPacket                 cstackCOMMON 00079
??_RFM98_LoRaClearIrq                cstackCOMMON 00078
??_RFM98_LoRaEntryRx                 cstackCOMMON 0007A
??_RFM98_LoRaEntryTx                 cstackCOMMON 0007A
??_RFM98_LoRaReadRSSI                cstackCOMMON 00076
??_RFM98_LoRaRxPacket                cstackCOMMON 00079
??_RFM98_LoRaRxWaitStable            cstackCOMMON 00076
??_RFM98_LoRaTxPacket                cstackCOMMON 00079
??_RFM98_LoRaTxWaitStable            cstackCOMMON 00076
??_RFM98_ReadRSSI                    cstackCOMMON 00076
??_RFM98_Running                     cstackCOMMON 0007A
??_RFM98_Sleep                       cstackCOMMON 00078
??_RFM98_Standby                     cstackCOMMON 00078
??_RFM98_TestConfig                  cstackCOMMON 00078
??_RFM98_TestRx                      cstackCOMMON 00078
??_RFM98_TestTx                      cstackCOMMON 00078
??_RFParameterSelect                 cstackBANK0  00060
??_RxLED_Deal                        cstackCOMMON 00072
??_SPIBurstRead                      cstackCOMMON 00076
??_SPICmd8bit                        cstackCOMMON 00072
??_SPIRead                           cstackCOMMON 00074
??_SPIRead8bit                       cstackCOMMON 00072
??_SPIWrite                          cstackCOMMON 00077
??_SaveRFParameterToFlash            cstackCOMMON 00079
??_SendNumberToDispBuf               cstackCOMMON 0007A
??_SendSegDataToDispBuf              cstackCOMMON 00072
??_SendStringToDispBuf               cstackBANK0  00060
??_TxLED_Deal                        cstackCOMMON 00072
??_Uart_init                         cstackCOMMON 00072
??_WorkModeSelect                    cstackBANK0  00060
??___bmul                            cstackCOMMON 00073
??___lwdiv                           cstackCOMMON 00076
??___lwmod                           cstackCOMMON 00079
??_main                              cstackCOMMON 0007A
??_timer1_init                       cstackCOMMON 00072
??_timer2_init                       cstackCOMMON 00072
??i1_BeepOff                         cstackCOMMON 00070
?_AsciiToDisplay                     cstackCOMMON 00070
?_BeepOff                            cstackCOMMON 00070
?_BeepOn                             cstackCOMMON 00072
?_BurstWrite                         cstackCOMMON 00074
?_CK1622_WriteByte                   cstackCOMMON 00072
?_CK1622_WriteCmd                    cstackCOMMON 00070
?_Clr_LCD                            cstackCOMMON 00070
?_Delay_ms                           cstackCOMMON 00072
?_DisplayRFParameter                 cstackCOMMON 00070
?_FlashDisplay                       cstackCOMMON 00070
?_FlashErase                         cstackCOMMON 00072
?_FlashRead                          cstackCOMMON 00072
?_FlashUnlock                        cstackCOMMON 00070
?_FlashWrite                         cstackCOMMON 00072
?_ISR_timer                          cstackCOMMON 00070
?_InitPort                           cstackCOMMON 00070
?_InitSfr                            cstackCOMMON 00070
?_InitSystemParameter                cstackCOMMON 00070
?_KeyRead                            cstackCOMMON 00070
?_KeyScan                            cstackCOMMON 00070
?_LCD_Display                        cstackCOMMON 00070
?_LCD_DisplayAll                     cstackCOMMON 00070
?_LCD_Init                           cstackCOMMON 00070
?_MenuConfig                         cstackCOMMON 00070
?_ModemSelect                        cstackCOMMON 00070
?_ModuleSelectModeEntryCheck         cstackCOMMON 00070
?_PowerOnMusic                       cstackCOMMON 00070
?_PowerUpDelay                       cstackCOMMON 00070
?_RFM98_Config                       cstackCOMMON 00070
?_RFM98_EntryLoRa                    cstackCOMMON 00070
?_RFM98_EntryTestRx                  cstackCOMMON 00070
?_RFM98_EntryTestTx                  cstackCOMMON 00070
?_RFM98_FSKRxWaitStable              cstackCOMMON 00070
?_RFM98_FSKTxWaitStable              cstackCOMMON 00070
?_RFM98_FskClearFIFO                 cstackCOMMON 00070
?_RFM98_FskEntryRx                   cstackCOMMON 00070
?_RFM98_FskEntryTx                   cstackCOMMON 00070
?_RFM98_FskRxPacket                  cstackCOMMON 00070
?_RFM98_FskTxPacket                  cstackCOMMON 00070
?_RFM98_LoRaClearIrq                 cstackCOMMON 00070
?_RFM98_LoRaEntryRx                  cstackCOMMON 00070
?_RFM98_LoRaEntryTx                  cstackCOMMON 00070
?_RFM98_LoRaReadRSSI                 cstackCOMMON 00070
?_RFM98_LoRaRxPacket                 cstackCOMMON 00070
?_RFM98_LoRaRxWaitStable             cstackCOMMON 00070
?_RFM98_LoRaTxPacket                 cstackCOMMON 00070
?_RFM98_LoRaTxWaitStable             cstackCOMMON 00070
?_RFM98_ReadRSSI                     cstackCOMMON 00070
?_RFM98_Running                      cstackBANK0  00066
?_RFM98_Sleep                        cstackCOMMON 00070
?_RFM98_Standby                      cstackCOMMON 00070
?_RFM98_TestConfig                   cstackCOMMON 00070
?_RFM98_TestRx                       cstackCOMMON 00070
?_RFM98_TestTx                       cstackCOMMON 00070
?_RFParameterSelect                  cstackCOMMON 00070
?_RxLED_Deal                         cstackCOMMON 00070
?_SPIBurstRead                       cstackCOMMON 00074
?_SPICmd8bit                         cstackCOMMON 00070
?_SPIRead                            cstackCOMMON 00070
?_SPIRead8bit                        cstackCOMMON 00070
?_SPIWrite                           cstackCOMMON 00075
?_SaveRFParameterToFlash             cstackCOMMON 00070
?_SendNumberToDispBuf                cstackBANK0  00064
?_SendSegDataToDispBuf               cstackCOMMON 00070
?_SendStringToDispBuf                cstackCOMMON 00074
?_TxLED_Deal                         cstackCOMMON 00070
?_Uart_init                          cstackCOMMON 00070
?_WorkModeSelect                     cstackCOMMON 00070
?___bmul                             cstackCOMMON 00072
?___lwdiv                            cstackCOMMON 00072
?___lwmod                            cstackBANK0  00060
?_main                               cstackCOMMON 00070
?_timer1_init                        cstackCOMMON 00070
?_timer2_init                        cstackCOMMON 00070
?i1_BeepOff                          cstackCOMMON 00070
AsciiToDisplay@DispData              cstackCOMMON 00072
AsciiToDisplay@Letter                cstackCOMMON 00073
BeepOn@Tone                          cstackCOMMON 00072
BeepOn@i                             cstackCOMMON 00079
BurstWrite@adr                       cstackBANK0  00060
BurstWrite@i                         cstackBANK0  00061
BurstWrite@length                    cstackCOMMON 00076
BurstWrite@ptr                       cstackCOMMON 00074
CK1622_WriteByte@addr                cstackCOMMON 00073
CK1622_WriteByte@dat                 cstackCOMMON 00072
CK1622_WriteByte@i                   cstackCOMMON 00076
CK1622_WriteByte@temp                cstackCOMMON 00074
CK1622_WriteCmd@cmd                  cstackCOMMON 00072
CK1622_WriteCmd@i                    cstackCOMMON 00075
CK1622_WriteCmd@temp                 cstackCOMMON 00073
Clr_LCD@i                            cstackCOMMON 00078
Clr_LCD@j                            cstackCOMMON 00077
Delay_ms@i                           cstackBANK0  00060
Delay_ms@time                        cstackCOMMON 00072
DisplayRFParameter@TempDispBuf       cstackBANK0  0006D
FlashDisplay@i                       cstackCOMMON 00073
FlashErase@FlashAdr                  cstackCOMMON 00072
FlashRead@FlashAdr                   cstackCOMMON 00072
FlashRead@array                      cstackCOMMON 00076
FlashRead@i                          cstackCOMMON 00078
FlashWrite@FlashAdr                  cstackCOMMON 00072
FlashWrite@array                     cstackCOMMON 00076
FlashWrite@i                         cstackCOMMON 00078
KeyRead@temp                         cstackCOMMON 00072
KeyScan@keyValue                     cstackCOMMON 00073
KeyScan@temp                         cstackCOMMON 00074
LCD_Display@i                        cstackCOMMON 00077
LCD_DisplayAll@i                     cstackCOMMON 00072
MenuConfig@KeyValue                  cstackBANK0  0006F
ModemSelect@KeyValue                 cstackBANK0  00062
RFM98_Config@i                       cstackBANK0  00062
RFM98_Config@mode                    cstackBANK0  00060
RFM98_Config@tmp                     cstackBANK0  00061
RFM98_EntryTestRx@i                  cstackBANK0  00061
RFM98_EntryTestTx@i                  cstackBANK0  00061
RFM98_FskEntryRx@i                   cstackBANK0  00065
RFM98_FskEntryTx@i                   cstackBANK0  00065
RFM98_FskRxPacket@i                  cstackBANK0  00060
RFM98_FskTxPacket@TxFlag             cstackCOMMON 00079
RFM98_LoRaEntryRx@addr               cstackBANK0  00063
RFM98_LoRaEntryTx@addr               cstackBANK0  00063
RFM98_LoRaReadRSSI@temp              cstackCOMMON 00076
RFM98_LoRaRxPacket@addr              cstackBANK0  00060
RFM98_LoRaRxPacket@i                 cstackBANK0  00062
RFM98_LoRaRxPacket@packet_size       cstackBANK0  00061
RFM98_LoRaTxPacket@TxFlag            cstackBANK0  00063
RFM98_LoRaTxPacket@addr              cstackBANK0  00062
RFM98_LoRaTxWaitStable@temp          cstackCOMMON 00076
RFM98_ReadRSSI@temp                  cstackCOMMON 00076
RFM98_Running@ParaChangeFlag         cstackBANK0  00067
RFM98_Running@RSSI                   cstackBANK0  0006A
RFM98_Running@RxFlag                 cstackBANK0  00069
RFM98_Running@TxFlag                 cstackBANK0  00068
RFM98_Running@WorkStatus             cstackBANK0  00066
RFM98_Running@mode                   cstackBANK0  0006B
RFM98_Running@temp                   cstackBANK0  0006C
RFM98_TestConfig@i                   cstackBANK0  00060
RFParameterSelect@KeyValue           cstackBANK0  00064
SPIBurstRead@adr                     cstackCOMMON 00077
SPIBurstRead@i                       cstackCOMMON 00078
SPIBurstRead@length                  cstackCOMMON 00075
SPIBurstRead@ptr                     cstackCOMMON 00074
SPICmd8bit@WrPara                    cstackCOMMON 00072
SPICmd8bit@bitcnt                    cstackCOMMON 00073
SPIRead8bit@RdPara                   cstackCOMMON 00072
SPIRead8bit@bitcnt                   cstackCOMMON 00073
SPIRead@adr                          cstackCOMMON 00074
SPIRead@tmp                          cstackCOMMON 00075
SPIWrite@WrPara                      cstackCOMMON 00075
SPIWrite@bitcnt                      cstackCOMMON 00077
SaveRFParameterToFlash@i             cstackCOMMON 00079
SendNumberToDispBuf@addr             cstackBANK0  00068
SendNumberToDispBuf@dat              cstackBANK0  00064
SendNumberToDispBuf@length           cstackBANK0  00066
SendNumberToDispBuf@temp             cstackBANK0  00067
SendStringToDispBuf@addr             cstackCOMMON 00079
SendStringToDispBuf@datBuf           cstackCOMMON 00074
SendStringToDispBuf@i                cstackCOMMON 00077
SendStringToDispBuf@j                cstackCOMMON 00076
SendStringToDispBuf@length           cstackCOMMON 00078
WorkModeSelect@KeyValue              cstackBANK0  00062
_ADCON0                              (abs)        0009D
_ANSELA                              (abs)        0018C
_ANSELB                              (abs)        0018D
_ANSELC                              (abs)        0018E
_ANSELD                              (abs)        0018F
_ANSELE                              (abs)        00190
_APFCON                              (abs)        0011D
_AsciiToDisplay                      text2176     00ED2
_BAUDCON                             (abs)        0019F
_BORCON                              (abs)        00116
_BeepOff                             cinit        00181
_BeepOn                              cinit        00621
_BurstWrite                          text2152     00938
_CFGS                                (abs)        00CAE
_CK1622_WriteByte                    cinit        002DB
_CK1622_WriteCmd                     cinit        00277
_C_RFM98_BandBuf                     stringtext   01972
_C_RFM98_FdevBuf                     stringtext   01974
_C_RFM98_FreqBuf                     stringtext   0196B
_C_RFM98_LoRaBandBuf                 stringtext   018DA
_C_RFM98_LoRaRSSIBuf                 stringtext   01952
_C_RFM98_ModemBuf                    stringtext   0196F
_C_RFM98_ModuleName                  stringtext   01957
_C_RFM98_PowerBuf                    stringtext   0195C
_C_RFM98_RSSIBuf                     stringtext   01961
_C_RFM98_RateBuf                     stringtext   01966
_C_RFM98_SpreadFactorBuf             stringtext   01932
_Clr_LCD                             cinit        002C3
_Delay_ms                            cinit        00725
_DispBuf                             bssBANK1     000A0
_DispBufCache                        bssBANK1     000C0
_DisplayRFParameter                  text2176     00A2F
_FREE                                (abs)        00CAC
_FVRCON                              (abs)        00117
_FlashDisplay                        text2215     012F0
_FlashErase                          cinit        00695
_FlashRead                           cinit        00235
_FlashUnlock                         cinit        006D1
_FlashWrite                          cinit        006A4
_GIE                                 (abs)        0005F
_INTCON                              (abs)        0000B
_ISR_timer                           intentry     00004
_InitPort                            cinit        001A2
_InitSfr                             cinit        00189
_InitSystemParameter                 text2165     01235
_KeyRead                             cinit        00719
_KeyScan                             cinit        006F3
_LATA                                (abs)        0010C
_LATB                                (abs)        0010D
_LATC                                (abs)        0010E
_LATD                                (abs)        0010F
_LATD0                               (abs)        00878
_LATE                                (abs)        00110
_LCDDigTable                         stringtext   01801
_LCD_Display                         cinit        0030D
_LCD_DisplayAll                      cinit        002B6
_LCD_Init                            cinit        00258
_LWLO                                (abs)        00CAD
_MenuConfig                          cinit        006D9
_ModemSelect                         text2165     011D1
_ModuleSelectModeEntryCheck          cinit        001FC
_MusicTab_Error                      stringtext   01906
_MusicTab_KeyErr                     stringtext   0193A
_MusicTab_KeyMove                    stringtext   01942
_MusicTab_KeyOK                      stringtext   0191A
_MusicTab_KeyOver                    stringtext   018BA
_MusicTab_KeySet                     stringtext   01926
_MusicTab_PowerOn                    stringtext   01896
_MusicTab_RxSuccess                  stringtext   0194A
_OPTION_REG                          (abs)        00095
_OSCCON                              (abs)        00099
_PCON                                (abs)        00096
_PIR1                                (abs)        00011
_PIR2                                (abs)        00012
_PMADR                               (abs)        00191
_PMCON2                              (abs)        00196
_PMDAT                               (abs)        00193
_PMDATH                              (abs)        00194
_PMDATL                              (abs)        00193
_PORTA                               (abs)        0000C
_PORTB                               (abs)        0000D
_PORTC                               (abs)        0000E
_PORTD                               (abs)        0000F
_PORTE                               (abs)        00010
_PR2                                 (abs)        0001B
_PowerOnMusic                        cinit        00296
_PowerUpDelay                        cinit        00252
_RA0                                 (abs)        00060
_RA1                                 (abs)        00061
_RA5                                 (abs)        00065
_RB0                                 (abs)        00068
_RB1                                 (abs)        00069
_RB2                                 (abs)        0006A
_RB3                                 (abs)        0006B
_RB5                                 (abs)        0006D
_RC2                                 (abs)        00072
_RC3                                 (abs)        00073
_RC4                                 (abs)        00074
_RC5                                 (abs)        00075
_RCIE                                (abs)        0048D
_RCSTA                               (abs)        0019D
_RD                                  (abs)        00CA8
_RD1                                 (abs)        00079
_RD2                                 (abs)        0007A
_RD3                                 (abs)        0007B
_RD4                                 (abs)        0007C
_RD5                                 (abs)        0007D
_RD6                                 (abs)        0007E
_RD7                                 (abs)        0007F
_RE0                                 (abs)        00080
_RE2                                 (abs)        00082
_RFM98ConfigTbl                      stringtext   01827
_RFM98Data                           stringtext   018F0
_RFM98FSKRateTbl                     stringtext   01859
_RFM98FreqTbl                        stringtext   0188A
_RFM98LoRaBwTbl                      stringtext   01869
_RFM98PowerTbl                       stringtext   01873
_RFM98RxTable                        stringtext   0187B
_RFM98SpreadFactorTbl                stringtext   01883
_RFM98TestConfigTbl                  stringtext   01847
_RFM98TxTable                        stringtext   01890
_RFM98_Config                        text2160     01620
_RFM98_EntryLoRa                     text2160     0172C
_RFM98_EntryTestRx                   text2160     017CE
_RFM98_EntryTestTx                   text2160     017AD
_RFM98_FSKRxWaitStable               text2152     008E3
_RFM98_FSKTxWaitStable               text2152     009F7
_RFM98_FskClearFIFO                  text2152     008D8
_RFM98_FskEntryRx                    text2160     01539
_RFM98_FskEntryTx                    text2160     01507
_RFM98_FskRxPacket                   text2152     008A6
_RFM98_FskTxPacket                   text2152     008F8
_RFM98_LoRaClearIrq                  text2160     0171F
_RFM98_LoRaEntryRx                   text2160     015F0
_RFM98_LoRaEntryTx                   text2160     015C6
_RFM98_LoRaReadRSSI                  text2160     01731
_RFM98_LoRaRxPacket                  text2152     0095A
_RFM98_LoRaRxWaitStable              text2152     009E5
_RFM98_LoRaTxPacket                  text2160     01425
_RFM98_LoRaTxWaitStable              text2160     017ED
_RFM98_ReadRSSI                      text2160     01724
_RFM98_Running                       text2160     01474
_RFM98_Sleep                         text2160     0170C
_RFM98_Standby                       text2160     0171A
_RFM98_TestConfig                    text2160     0156D
_RFM98_TestRx                        text2152     0089D
_RFM98_TestTx                        text2160     0173B
_RFParameterSelect                   cinit        003C3
_RF_BandBuf                          bssBANK0     00024
_RF_FdevBuf                          bssBANK0     00026
_RF_FreqBuf                          bssBANK0     00028
_RF_LoRaBandWidthBuf                 bssBANK0     0002A
_RF_ModemBuf                         bssBANK0     0002C
_RF_ModuleName                       bssBANK0     0002E
_RF_PowerBuf                         bssBANK0     00030
_RF_RSSIBuf                          bssBANK0     00032
_RF_RateBuf                          bssBANK0     00034
_RxLED_Deal                          cinit        00178
_SPBRGH                              (abs)        0019C
_SPBRGL                              (abs)        0019B
_SPIBurstRead                        text2152     009A8
_SPICmd8bit                          text2152     009C4
_SPIRead                             text2160     01711
_SPIRead8bit                         text2152     009D6
_SPIWrite                            text2160     016EC
_SaveRFParameterToFlash              cinit        0065F
_SendNumberToDispBuf                 text2176     00D38
_SendSegDataToDispBuf                cinit        00333
_SendStringToDispBuf                 text2176     00C99
_T1CON                               (abs)        00018
_T2CON                               (abs)        0001C
_TMR1H                               (abs)        00017
_TMR1IE                              (abs)        00488
_TMR1IF                              (abs)        00088
_TMR1L                               (abs)        00016
_TMR1ON                              (abs)        000C0
_TMR2IE                              (abs)        00489
_TMR2IF                              (abs)        00089
_TRISA                               (abs)        0008C
_TRISA1                              (abs)        00461
_TRISA5                              (abs)        00465
_TRISB                               (abs)        0008D
_TRISC                               (abs)        0008E
_TRISC6                              (abs)        00476
_TRISC7                              (abs)        00477
_TRISD                               (abs)        0008F
_TRISD0                              (abs)        00478
_TRISE                               (abs)        00090
_TRISE0                              (abs)        00480
_TRISE1                              (abs)        00481
_TRISE2                              (abs)        00482
_TXIE                                (abs)        0048C
_TXSTA                               (abs)        0019E
_TxLED_Deal                          cinit        00122
_Uart_init                           cinit        001EB
_WDTCON                              (abs)        00097
_WPUB                                (abs)        0020D
_WPUE                                (abs)        00210
_WR                                  (abs)        00CA9
_WREN                                (abs)        00CAA
_WorkModeSelect                      cinit        0048C
__DispSeg                            bssBANK0     00020
__Habs1                              abs1         00000
__Hbank0                             bank0        00000
__Hbank1                             bank1        00000
__Hbank10                            bank10       00000
__Hbank11                            bank11       00000
__Hbank12                            bank12       00000
__Hbank13                            bank13       00000
__Hbank14                            bank14       00000
__Hbank15                            bank15       00000
__Hbank16                            bank16       00000
__Hbank17                            bank17       00000
__Hbank18                            bank18       00000
__Hbank19                            bank19       00000
__Hbank2                             bank2        00000
__Hbank20                            bank20       00000
__Hbank21                            bank21       00000
__Hbank22                            bank22       00000
__Hbank23                            bank23       00000
__Hbank24                            bank24       00000
__Hbank25                            bank25       00000
__Hbank26                            bank26       00000
__Hbank27                            bank27       00000
__Hbank28                            bank28       00000
__Hbank29                            bank29       00000
__Hbank3                             bank3        00000
__Hbank30                            bank30       00000
__Hbank31                            bank31       00000
__Hbank4                             bank4        00000
__Hbank5                             bank5        00000
__Hbank6                             bank6        00000
__Hbank7                             bank7        00000
__Hbank8                             bank8        00000
__Hbank9                             bank9        00000
__Hbigram                            bigram       00000
__HbssBANK0                          bssBANK0     00000
__HbssBANK1                          bssBANK1     00000
__HbssBANK2                          bssBANK2     00000
__HbssBANK3                          bssBANK3     00000
__HbssCOMMON                         bssCOMMON    00000
__Hcinit                             cinit        00000
__Hclrtext                           clrtext      00000
__Hcode                              code         00000
__Hcommon                            common       00000
__Hconfig                            config       08008
__HcstackBANK0                       cstackBANK0  00000
__HcstackBANK1                       cstackBANK1  00000
__HcstackCOMMON                      cstackCOMMON 00000
__Heeprom_data                       eeprom_data  00000
__Hend_init                          end_init     00099
__Hfunctab                           functab      00000
__Hidloc                             idloc        00000
__Hinit                              init         00096
__Hintentry                          intentry     00096
__Hmaintext                          maintext     00000
__Hpa_nodes                          pa_nodes     00000
__Hpowerup                           powerup      00000
__Hram                               ram          00000
__Hreset_vec                         reset_vec    00002
__Hsfr0                              sfr0         00000
__Hsfr1                              sfr1         00000
__Hsfr10                             sfr10        00000
__Hsfr11                             sfr11        00000
__Hsfr12                             sfr12        00000
__Hsfr13                             sfr13        00000
__Hsfr14                             sfr14        00000
__Hsfr15                             sfr15        00000
__Hsfr16                             sfr16        00000
__Hsfr17                             sfr17        00000
__Hsfr18                             sfr18        00000
__Hsfr19                             sfr19        00000
__Hsfr2                              sfr2         00000
__Hsfr20                             sfr20        00000
__Hsfr21                             sfr21        00000
__Hsfr22                             sfr22        00000
__Hsfr23                             sfr23        00000
__Hsfr24                             sfr24        00000
__Hsfr25                             sfr25        00000
__Hsfr26                             sfr26        00000
__Hsfr27                             sfr27        00000
__Hsfr28                             sfr28        00000
__Hsfr29                             sfr29        00000
__Hsfr3                              sfr3         00000
__Hsfr30                             sfr30        00000
__Hsfr31                             sfr31        00000
__Hsfr4                              sfr4         00000
__Hsfr5                              sfr5         00000
__Hsfr6                              sfr6         00000
__Hsfr7                              sfr7         00000
__Hsfr8                              sfr8         00000
__Hsfr9                              sfr9         00000
__Hstrings                           strings      00000
__Hstringtext                        stringtext   00000
__Htext                              text         00000
__Labs1                              abs1         00000
__Lbank0                             bank0        00000
__Lbank1                             bank1        00000
__Lbank10                            bank10       00000
__Lbank11                            bank11       00000
__Lbank12                            bank12       00000
__Lbank13                            bank13       00000
__Lbank14                            bank14       00000
__Lbank15                            bank15       00000
__Lbank16                            bank16       00000
__Lbank17                            bank17       00000
__Lbank18                            bank18       00000
__Lbank19                            bank19       00000
__Lbank2                             bank2        00000
__Lbank20                            bank20       00000
__Lbank21                            bank21       00000
__Lbank22                            bank22       00000
__Lbank23                            bank23       00000
__Lbank24                            bank24       00000
__Lbank25                            bank25       00000
__Lbank26                            bank26       00000
__Lbank27                            bank27       00000
__Lbank28                            bank28       00000
__Lbank29                            bank29       00000
__Lbank3                             bank3        00000
__Lbank30                            bank30       00000
__Lbank31                            bank31       00000
__Lbank4                             bank4        00000
__Lbank5                             bank5        00000
__Lbank6                             bank6        00000
__Lbank7                             bank7        00000
__Lbank8                             bank8        00000
__Lbank9                             bank9        00000
__Lbigram                            bigram       00000
__LbssBANK0                          bssBANK0     00000
__LbssBANK1                          bssBANK1     00000
__LbssBANK2                          bssBANK2     00000
__LbssBANK3                          bssBANK3     00000
__LbssCOMMON                         bssCOMMON    00000
__Lcinit                             cinit        00000
__Lclrtext                           clrtext      00000
__Lcode                              code         00000
__Lcommon                            common       00000
__Lconfig                            config       08007
__LcstackBANK0                       cstackBANK0  00000
__LcstackBANK1                       cstackBANK1  00000
__LcstackCOMMON                      cstackCOMMON 00000
__Leeprom_data                       eeprom_data  00000
__Lend_init                          end_init     00096
__Lfunctab                           functab      00000
__Lidloc                             idloc        00000
__Linit                              init         00096
__Lintentry                          intentry     00004
__Lmaintext                          maintext     00000
__Lpa_nodes                          pa_nodes     00000
__Lpowerup                           powerup      00000
__Lram                               ram          00000
__Lreset_vec                         reset_vec    00000
__Lsfr0                              sfr0         00000
__Lsfr1                              sfr1         00000
__Lsfr10                             sfr10        00000
__Lsfr11                             sfr11        00000
__Lsfr12                             sfr12        00000
__Lsfr13                             sfr13        00000
__Lsfr14                             sfr14        00000
__Lsfr15                             sfr15        00000
__Lsfr16                             sfr16        00000
__Lsfr17                             sfr17        00000
__Lsfr18                             sfr18        00000
__Lsfr19                             sfr19        00000
__Lsfr2                              sfr2         00000
__Lsfr20                             sfr20        00000
__Lsfr21                             sfr21        00000
__Lsfr22                             sfr22        00000
__Lsfr23                             sfr23        00000
__Lsfr24                             sfr24        00000
__Lsfr25                             sfr25        00000
__Lsfr26                             sfr26        00000
__Lsfr27                             sfr27        00000
__Lsfr28                             sfr28        00000
__Lsfr29                             sfr29        00000
__Lsfr3                              sfr3         00000
__Lsfr30                             sfr30        00000
__Lsfr31                             sfr31        00000
__Lsfr4                              sfr4         00000
__Lsfr5                              sfr5         00000
__Lsfr6                              sfr6         00000
__Lsfr7                              sfr7         00000
__Lsfr8                              sfr8         00000
__Lsfr9                              sfr9         00000
__Lstrings                           strings      00000
__Lstringtext                        stringtext   00000
__Ltext                              text         00000
__S0                                 (abs)        08008
__S1                                 (abs)        001DC
___bmul                              text2160     01700
___bmul@multiplicand                 cstackCOMMON 00072
___bmul@multiplier                   cstackCOMMON 00074
___bmul@product                      cstackCOMMON 00073
___lwdiv                             text2176     00F13
___lwdiv@counter                     cstackCOMMON 00076
___lwdiv@dividend                    cstackCOMMON 00074
___lwdiv@divisor                     cstackCOMMON 00072
___lwdiv@quotient                    cstackCOMMON 00077
___lwmod                             text2176     00F38
___lwmod@counter                     cstackCOMMON 00079
___lwmod@dividend                    cstackBANK0  00062
___lwmod@divisor                     cstackBANK0  00060
__end_of_AsciiToDisplay              text2176     00F13
__end_of_BeepOff                     cinit        00189
__end_of_BeepOn                      cinit        0065F
__end_of_BurstWrite                  text2152     0095A
__end_of_CK1622_WriteByte            cinit        0030D
__end_of_CK1622_WriteCmd             cinit        00296
__end_of_Clr_LCD                     cinit        002DB
__end_of_Delay_ms                    cinit        00748
__end_of_DisplayRFParameter          text2176     00C99
__end_of_FlashDisplay                text2215     01402
__end_of_FlashErase                  cinit        006A4
__end_of_FlashRead                   cinit        00252
__end_of_FlashUnlock                 cinit        006D9
__end_of_FlashWrite                  cinit        006D1
__end_of_ISR_timer                   intentry     00096
__end_of_InitPort                    cinit        001D6
__end_of_InitSfr                     cinit        001A2
__end_of_InitSystemParameter         text2165     012C7
__end_of_KeyRead                     cinit        00725
__end_of_KeyScan                     cinit        00719
__end_of_LCD_Display                 cinit        00333
__end_of_LCD_DisplayAll              cinit        002C3
__end_of_LCD_Init                    cinit        00277
__end_of_MenuConfig                  cinit        006F3
__end_of_ModemSelect                 text2165     01235
__end_of_ModuleSelectModeEntryCheck  cinit        00235
__end_of_PowerOnMusic                cinit        002B6
__end_of_PowerUpDelay                cinit        00258
__end_of_RFM98_Config                text2160     016EC
__end_of_RFM98_EntryLoRa             text2160     01731
__end_of_RFM98_EntryTestRx           text2160     017E7
__end_of_RFM98_EntryTestTx           text2160     017C8
__end_of_RFM98_FSKRxWaitStable       text2152     008F8
__end_of_RFM98_FSKTxWaitStable       text2152     00A0C
__end_of_RFM98_FskClearFIFO          text2152     008E3
__end_of_RFM98_FskEntryRx            text2160     0156D
__end_of_RFM98_FskEntryTx            text2160     01539
__end_of_RFM98_FskRxPacket           text2152     008D8
__end_of_RFM98_FskTxPacket           text2152     00938
__end_of_RFM98_LoRaClearIrq          text2160     01724
__end_of_RFM98_LoRaEntryRx           text2160     01620
__end_of_RFM98_LoRaEntryTx           text2160     015F0
__end_of_RFM98_LoRaReadRSSI          text2160     0173B
__end_of_RFM98_LoRaRxPacket          text2152     009A8
__end_of_RFM98_LoRaRxWaitStable      text2152     009F7
__end_of_RFM98_LoRaTxPacket          text2160     01474
__end_of_RFM98_LoRaTxWaitStable      text2160     01800
__end_of_RFM98_ReadRSSI              text2160     0172C
__end_of_RFM98_Running               text2160     01507
__end_of_RFM98_Sleep                 text2160     01711
__end_of_RFM98_Standby               text2160     0171F
__end_of_RFM98_TestConfig            text2160     015C6
__end_of_RFM98_TestRx                text2152     008A6
__end_of_RFM98_TestTx                text2160     01746
__end_of_RFParameterSelect           cinit        0048C
__end_of_RxLED_Deal                  cinit        00181
__end_of_SPIBurstRead                text2152     009C4
__end_of_SPICmd8bit                  text2152     009D6
__end_of_SPIRead                     text2160     0171A
__end_of_SPIRead8bit                 text2152     009E5
__end_of_SPIWrite                    text2160     01700
__end_of_SaveRFParameterToFlash      cinit        00695
__end_of_SendNumberToDispBuf         text2176     00ED2
__end_of_SendSegDataToDispBuf        cinit        003C3
__end_of_SendStringToDispBuf         text2176     00D38
__end_of_TxLED_Deal                  cinit        00178
__end_of_Uart_init                   cinit        001FC
__end_of_WorkModeSelect              cinit        00621
__end_of___bmul                      text2160     0170C
__end_of___lwdiv                     text2176     00F38
__end_of___lwmod                     text2176     00F58
__end_of_main                        cinit        00122
__end_of_timer1_init                 cinit        001E1
__end_of_timer2_init                 cinit        001EB
__end_ofi1_BeepOff                   text2223     007DF
__pbssBANK0                          bssBANK0     00020
__pbssBANK1                          bssBANK1     000A0
__pbssBANK2                          bssBANK2     00120
__pbssBANK3                          bssBANK3     001A0
__pbssCOMMON                         bssCOMMON    0007A
__pcstackBANK0                       cstackBANK0  00060
__pcstackBANK1                       cstackBANK1  000E4
__pcstackCOMMON                      cstackCOMMON 00070
__pintentry                          intentry     00004
__pmaintext                          cinit        000BD
__pstringtext                        stringtext   01800
__pswtext1                           swtext1      007C4
__ptext2150                          text2160     01474
__ptext2151                          cinit        006D9
__ptext2152                          text2152     0089D
__ptext2153                          text2160     017CE
__ptext2154                          text2160     0173B
__ptext2155                          text2160     017AD
__ptext2156                          text2152     008F8
__ptext2157                          text2160     01507
__ptext2158                          text2152     008A6
__ptext2159                          text2160     01539
__ptext2160                          text2160     01425
__ptext2161                          text2160     015C6
__ptext2162                          text2152     0095A
__ptext2163                          text2160     015F0
__ptext2164                          cinit        0048C
__ptext2165                          text2165     011D1
__ptext2166                          cinit        003C3
__ptext2167                          text2160     0156D
__ptext2168                          text2152     009F7
__ptext2169                          text2152     008E3
__ptext2170                          text2160     01724
__ptext2171                          text2160     017ED
__ptext2172                          text2160     01731
__ptext2173                          text2152     009E5
__ptext2174                          text2160     01620
__ptext2175                          cinit        00296
__ptext2176                          text2176     00A2F
__ptext2177                          cinit        0065F
__ptext2178                          cinit        00258
__ptext2179                          cinit        00252
__ptext2180                          text2152     008D8
__ptext2181                          text2152     00938
__ptext2182                          text2152     009A8
__ptext2183                          text2160     01711
__ptext2184                          text2160     0171F
__ptext2185                          text2160     0172C
__ptext2186                          text2160     0170C
__ptext2187                          text2160     0171A
__ptext2188                          cinit        001FC
__ptext2189                          cinit        006F3
__ptext2190                          cinit        0030D
__ptext2191                          text2176     00D38
__ptext2192                          text2176     00C99
__ptext2193                          cinit        002C3
__ptext2194                          cinit        006A4
__ptext2195                          cinit        00695
__ptext2196                          text2176     00F38
__ptext2197                          text2176     00F13
__ptext2198                          text2160     01700
__ptext2199                          cinit        001EB
__ptext2200                          cinit        001E1
__ptext2201                          cinit        001D6
__ptext2202                          cinit        001A2
__ptext2203                          cinit        00189
__ptext2204                          text2152     009D6
__ptext2205                          text2152     009C4
__ptext2206                          text2160     016EC
__ptext2207                          cinit        00181
__ptext2208                          cinit        00621
__ptext2209                          text2165     01235
__ptext2210                          cinit        00178
__ptext2211                          cinit        00122
__ptext2212                          cinit        00719
__ptext2213                          cinit        00725
__ptext2214                          cinit        002B6
__ptext2215                          text2215     012F0
__ptext2216                          cinit        00333
__ptext2217                          text2176     00ED2
__ptext2218                          cinit        00277
__ptext2219                          cinit        002DB
__ptext2220                          cinit        006D1
__ptext2221                          cinit        00235
__ptext2223                          text2223     007D8
__ptext2224                          text2224     00000
__size_of_AsciiToDisplay             (abs)        00000
__size_of_BeepOff                    (abs)        00000
__size_of_BeepOn                     (abs)        00000
__size_of_BurstWrite                 (abs)        00000
__size_of_CK1622_WriteByte           (abs)        00000
__size_of_CK1622_WriteCmd            (abs)        00000
__size_of_Clr_LCD                    (abs)        00000
__size_of_Delay_ms                   (abs)        00000
__size_of_DisplayRFParameter         (abs)        00000
__size_of_FlashDisplay               (abs)        00000
__size_of_FlashErase                 (abs)        00000
__size_of_FlashRead                  (abs)        00000
__size_of_FlashUnlock                (abs)        00000
__size_of_FlashWrite                 (abs)        00000
__size_of_ISR_timer                  (abs)        00000
__size_of_InitPort                   (abs)        00000
__size_of_InitSfr                    (abs)        00000
__size_of_InitSystemParameter        (abs)        00000
__size_of_KeyRead                    (abs)        00000
__size_of_KeyScan                    (abs)        00000
__size_of_LCD_Display                (abs)        00000
__size_of_LCD_DisplayAll             (abs)        00000
__size_of_LCD_Init                   (abs)        00000
__size_of_MenuConfig                 (abs)        00000
__size_of_ModemSelect                (abs)        00000
__size_of_ModuleSelectModeEntryCheck (abs)        00000
__size_of_PowerOnMusic               (abs)        00000
__size_of_PowerUpDelay               (abs)        00000
__size_of_RFM98_Config               (abs)        00000
__size_of_RFM98_EntryLoRa            (abs)        00000
__size_of_RFM98_EntryTestRx          (abs)        00000
__size_of_RFM98_EntryTestTx          (abs)        00000
__size_of_RFM98_FSKRxWaitStable      (abs)        00000
__size_of_RFM98_FSKTxWaitStable      (abs)        00000
__size_of_RFM98_FskClearFIFO         (abs)        00000
__size_of_RFM98_FskEntryRx           (abs)        00000
__size_of_RFM98_FskEntryTx           (abs)        00000
__size_of_RFM98_FskRxPacket          (abs)        00000
__size_of_RFM98_FskTxPacket          (abs)        00000
__size_of_RFM98_LoRaClearIrq         (abs)        00000
__size_of_RFM98_LoRaEntryRx          (abs)        00000
__size_of_RFM98_LoRaEntryTx          (abs)        00000
__size_of_RFM98_LoRaReadRSSI         (abs)        00000
__size_of_RFM98_LoRaRxPacket         (abs)        00000
__size_of_RFM98_LoRaRxWaitStable     (abs)        00000
__size_of_RFM98_LoRaTxPacket         (abs)        00000
__size_of_RFM98_LoRaTxWaitStable     (abs)        00000
__size_of_RFM98_ReadRSSI             (abs)        00000
__size_of_RFM98_Running              (abs)        00000
__size_of_RFM98_Sleep                (abs)        00000
__size_of_RFM98_Standby              (abs)        00000
__size_of_RFM98_TestConfig           (abs)        00000
__size_of_RFM98_TestRx               (abs)        00000
__size_of_RFM98_TestTx               (abs)        00000
__size_of_RFParameterSelect          (abs)        00000
__size_of_RxLED_Deal                 (abs)        00000
__size_of_SPIBurstRead               (abs)        00000
__size_of_SPICmd8bit                 (abs)        00000
__size_of_SPIRead                    (abs)        00000
__size_of_SPIRead8bit                (abs)        00000
__size_of_SPIWrite                   (abs)        00000
__size_of_SaveRFParameterToFlash     (abs)        00000
__size_of_SendNumberToDispBuf        (abs)        00000
__size_of_SendSegDataToDispBuf       (abs)        00000
__size_of_SendStringToDispBuf        (abs)        00000
__size_of_TxLED_Deal                 (abs)        00000
__size_of_Uart_init                  (abs)        00000
__size_of_WorkModeSelect             (abs)        00000
__size_of___bmul                     (abs)        00000
__size_of___lwdiv                    (abs)        00000
__size_of___lwmod                    (abs)        00000
__size_of_main                       (abs)        00000
__size_of_timer1_init                (abs)        00000
__size_of_timer2_init                (abs)        00000
__size_ofi1_BeepOff                  (abs)        00000
__stringtab                          stringtext   01800
_exit                                init         00096
_gb_BandBuf_Addr                     bssBANK0     00044
_gb_BeepOnCount                      bssBANK0     00045
_gb_BeepOnFlag                       bssBANK0     00046
_gb_BeepTimerH                       bssBANK0     00047
_gb_BeepTimerL                       bssBANK0     00048
_gb_DispFlashEnableFlag              bssBANK0     00049
_gb_DispFlashFlag                    bssBANK0     0004A
_gb_DispFlashFlagBackup              bssBANK0     0004B
_gb_ErrorFlag                        bssBANK0     0004C
_gb_FdevBuf_Addr                     bssBANK0     0004D
_gb_FirstPowerUpFlag                 bssBANK0     0004E
_gb_FreqBuf_Addr                     bssBANK0     0004F
_gb_KeyDownFlag                      bssBANK0     00050
_gb_KeyValue                         bssBANK0     00051
_gb_Modem_Addr                       bssCOMMON    0007A
_gb_Modem_Addr_Backup                bssBANK0     00052
_gb_ModuleWorkEnableFlag             bssBANK0     00053
_gb_ModuleWorkMode                   bssBANK0     00054
_gb_ParameterChangeFlag              bssBANK0     00055
_gb_PowerBuf_Addr                    bssBANK0     00056
_gb_RF_RSSI                          bssBANK0     0005F
_gb_RateBuf_Addr                     bssBANK0     00057
_gb_RxData                           bssBANK2     00120
_gb_StatusRx                         bssBANK0     00058
_gb_StatusTx                         bssBANK0     00059
_gb_SysMode_Set                      bssBANK0     0005A
_gb_SysTimer_1S                      bssBANK0     0005B
_gb_SystemMode                       bssCOMMON    0007B
_gb_TxLedCount                       bssBANK0     0005C
_gb_WaitStableFlag                   bssBANK0     0005D
_gb_WorkmodeBackup                   bssBANK0     0005E
_gw_BeepTimer                        bssBANK0     00036
_gw_KeyDebounceTimer                 bssBANK0     00038
_gw_LCDFlashTimer                    bssBANK1     000E0
_gw_RF_SentInterval                  bssBANK0     0003A
_gw_ReceiveDataCount                 bssBANK0     0003C
_gw_SendDataCount                    bssBANK0     0003E
_gw_TimerCount                       bssBANK1     000E2
_gw_ToneBuf                          bssBANK3     001A0
_gw_TxLedTimer                       bssBANK0     00040
_gw_TxTimer                          bssBANK0     00042
_main                                cinit        000BD
_timer1_init                         cinit        001D6
_timer2_init                         cinit        001E1
btemp                                (abs)        0007E
clear_ram                            clrtext      007DF
end_of_initialization                cinit        000BB
i1_BeepOff                           text2223     007D8
i1l12207                                               
i1l12217                                               
i1l12221                                               
i1l12229                                               
i1l12233                                               
i1l12235                                               
i1l12241                                               
i1l12247                                               
i1l12257                                               
i1l12337                                               
i1l12339                                               
i1l12341                                               
i1l4090                                                
intlevel0                            functab      00000
intlevel1                            functab      00000
intlevel2                            functab      00000
intlevel3                            functab      00000
intlevel4                            functab      00000
intlevel5                            functab      00000
l1145                                                  
l1148                                                  
l1151                                                  
l1158                                                  
l14397                                                 
l14399                                                 
l14401                                                 
l14407                                                 
l14409                                                 
l14411                                                 
l14413                                                 
l14415                                                 
l14417                                                 
l14419                                                 
l14421                                                 
l14423                                                 
l14425                                                 
l14427                                                 
l14429                                                 
l14437                                                 
l14439                                                 
l14447                                                 
l14449                                                 
l14451                                                 
l14453                                                 
l14455                                                 
l14457                                                 
l14459                                                 
l14461                                                 
l14467                                                 
l14469                                                 
l14499                                                 
l14555                                                 
l14565                                                 
l14567                                                 
l14571                                                 
l14575                                                 
l14579                                                 
l14583                                                 
l14587                                                 
l14599                                                 
l14605                                                 
l14607                                                 
l14615                                                 
l14617                                                 
l14621                                                 
l14627                                                 
l14629                                                 
l14637                                                 
l14639                                                 
l14643                                                 
l14651                                                 
l14653                                                 
l14663                                                 
l14665                                                 
l14669                                                 
l14675                                                 
l14677                                                 
l14685                                                 
l14687                                                 
l14691                                                 
l14697                                                 
l14699                                                 
l14707                                                 
l14709                                                 
l14713                                                 
l14715                                                 
l14717                                                 
l14723                                                 
l14729                                                 
l14731                                                 
l14739                                                 
l14741                                                 
l14745                                                 
l14751                                                 
l14753                                                 
l14761                                                 
l14763                                                 
l14777                                                 
l14785                                                 
l14787                                                 
l14799                                                 
l14803                                                 
l14805                                                 
l14819                                                 
l14821                                                 
l14825                                                 
l14827                                                 
l14839                                                 
l14841                                                 
l14843                                                 
l14851                                                 
l14857                                                 
l14865                                                 
l14887                                                 
l14895                                                 
l14897                                                 
l14901                                                 
l14905                                                 
l14907                                                 
l14913                                                 
l14917                                                 
l14919                                                 
l14921                                                 
l14925                                                 
l14933                                                 
l14935                                                 
l14937                                                 
l14945                                                 
l14947                                                 
l14949                                                 
l14951                                                 
l14953                                                 
l14963                                                 
l14967                                                 
l14969                                                 
l14971                                                 
l14973                                                 
l14975                                                 
l14977                                                 
l14979                                                 
l14981                                                 
l14983                                                 
l14985                                                 
l14987                                                 
l14989                                                 
l14991                                                 
l14993                                                 
l14995                                                 
l14997                                                 
l14999                                                 
l15001                                                 
l15003                                                 
l15005                                                 
l15007                                                 
l15009                                                 
l15011                                                 
l15013                                                 
l15015                                                 
l15017                                                 
l15019                                                 
l15021                                                 
l15023                                                 
l15025                                                 
l15027                                                 
l15029                                                 
l15031                                                 
l15033                                                 
l15035                                                 
l15037                                                 
l15039                                                 
l15041                                                 
l15043                                                 
l15045                                                 
l15047                                                 
l15049                                                 
l15051                                                 
l15053                                                 
l15055                                                 
l15057                                                 
l15059                                                 
l15061                                                 
l15063                                                 
l15071                                                 
l15073                                                 
l15095                                                 
l15097                                                 
l15107                                                 
l15111                                                 
l15115                                                 
l15121                                                 
l15135                                                 
l15141                                                 
l15143                                                 
l15145                                                 
l15147                                                 
l15149                                                 
l15151                                                 
l15153                                                 
l15155                                                 
l15157                                                 
l15159                                                 
l15161                                                 
l15163                                                 
l15165                                                 
l15167                                                 
l15169                                                 
l15177                                                 
l15179                                                 
l15181                                                 
l15185                                                 
l15187                                                 
l15189                                                 
l15201                                                 
l15203                                                 
l15205                                                 
l15207                                                 
l15209                                                 
l15235                                                 
l15249                                                 
l15251                                                 
l15257                                                 
l15261                                                 
l15263                                                 
l15267                                                 
l15293                                                 
l15295                                                 
l15297                                                 
l15299                                                 
l15301                                                 
l15303                                                 
l15319                                                 
l15321                                                 
l15323                                                 
l15325                                                 
l15327                                                 
l15329                                                 
l15347                                                 
l15349                                                 
l15351                                                 
l15353                                                 
l15355                                                 
l15357                                                 
l15371                                                 
l15373                                                 
l15375                                                 
l15377                                                 
l15379                                                 
l15391                                                 
l15393                                                 
l15395                                                 
l15399                                                 
l15403                                                 
l15411                                                 
l15413                                                 
l15417                                                 
l15425                                                 
l15427                                                 
l15429                                                 
l15431                                                 
l15433                                                 
l15435                                                 
l15439                                                 
l15459                                                 
l15461                                                 
l15463                                                 
l15469                                                 
l15471                                                 
l15477                                                 
l15479                                                 
l15481                                                 
l15483                                                 
l15485                                                 
l15487                                                 
l15491                                                 
l15497                                                 
l15499                                                 
l15503                                                 
l15507                                                 
l15513                                                 
l15515                                                 
l15519                                                 
l15523                                                 
l15525                                                 
l15527                                                 
l15529                                                 
l15533                                                 
l15535                                                 
l15537                                                 
l15539                                                 
l15541                                                 
l15543                                                 
l15545                                                 
l15547                                                 
l15549                                                 
l15551                                                 
l15559                                                 
l15561                                                 
l15563                                                 
l15581                                                 
l15583                                                 
l15585                                                 
l15587                                                 
l15589                                                 
l15591                                                 
l15593                                                 
l15595                                                 
l15597                                                 
l15599                                                 
l15601                                                 
l15603                                                 
l15605                                                 
l15613                                                 
l15615                                                 
l15617                                                 
l15619                                                 
l15621                                                 
l15623                                                 
l15625                                                 
l15627                                                 
l15629                                                 
l15631                                                 
l15633                                                 
l15635                                                 
l15637                                                 
l15639                                                 
l15697                                                 
l15701                                                 
l15703                                                 
l15705                                                 
l15713                                                 
l15723                                                 
l15725                                                 
l15727                                                 
l15729                                                 
l15731                                                 
l15739                                                 
l15741                                                 
l15743                                                 
l15745                                                 
l15747                                                 
l15751                                                 
l15753                                                 
l15755                                                 
l15757                                                 
l15761                                                 
l15763                                                 
l15767                                                 
l15769                                                 
l15775                                                 
l15779                                                 
l15795                                                 
l15799                                                 
l15823                                                 
l15825                                                 
l15827                                                 
l15829                                                 
l15831                                                 
l15841                                                 
l15843                                                 
l15845                                                 
l15851                                                 
l15853                                                 
l15859                                                 
l15869                                                 
l15875                                                 
l15877                                                 
l15881                                                 
l15889                                                 
l15891                                                 
l15895                                                 
l15897                                                 
l15899                                                 
l15903                                                 
l15905                                                 
l15907                                                 
l15909                                                 
l15911                                                 
l15917                                                 
l15919                                                 
l15921                                                 
l15931                                                 
l15933                                                 
l15937                                                 
l15945                                                 
l15947                                                 
l15951                                                 
l15955                                                 
l15959                                                 
l15961                                                 
l15963                                                 
l15965                                                 
l15967                                                 
l15971                                                 
l15975                                                 
l15977                                                 
l15981                                                 
l15983                                                 
l15985                                                 
l15987                                                 
l15989                                                 
l15991                                                 
l15995                                                 
l15999                                                 
l16003                                                 
l16005                                                 
l16009                                                 
l16013                                                 
l16015                                                 
l16017                                                 
l16023                                                 
l16025                                                 
l16031                                                 
l16041                                                 
l16047                                                 
l16049                                                 
l16057                                                 
l16059                                                 
l16069                                                 
l16071                                                 
l16075                                                 
l16083                                                 
l16085                                                 
l16089                                                 
l16091                                                 
l16093                                                 
l16095                                                 
l16123                                                 
l16129                                                 
l16139                                                 
l16149                                                 
l16163                                                 
l16173                                                 
l16179                                                 
l16185                                                 
l16197                                                 
l16199                                                 
l16201                                                 
l16205                                                 
l16211                                                 
l16219                                                 
l16221                                                 
l16229                                                 
l16231                                                 
l16233                                                 
l16239                                                 
l16251                                                 
l16255                                                 
l16257                                                 
l16259                                                 
l16261                                                 
l16263                                                 
l16265                                                 
l16273                                                 
l16295                                                 
l16325                                                 
l16359                                                 
l16373                                                 
l16451                                                 
l16453                                                 
l16471                                                 
l16475                                                 
l16481                                                 
l16483                                                 
l16485                                                 
l16487                                                 
l16489                                                 
l16491                                                 
l16493                                                 
l16495                                                 
l16497                                                 
l16499                                                 
l16501                                                 
l16503                                                 
l16505                                                 
l16507                                                 
l16509                                                 
l16511                                                 
l16513                                                 
l16515                                                 
l16521                                                 
l16529                                                 
l16531                                                 
l16535                                                 
l16543                                                 
l16545                                                 
l16557                                                 
l16575                                                 
l16577                                                 
l16579                                                 
l16581                                                 
l16583                                                 
l16585                                                 
l16587                                                 
l16589                                                 
l16591                                                 
l16593                                                 
l16595                                                 
l16597                                                 
l16599                                                 
l16601                                                 
l16603                                                 
l16605                                                 
l16607                                                 
l16611                                                 
l16613                                                 
l16615                                                 
l16617                                                 
l16619                                                 
l16623                                                 
l16629                                                 
l16631                                                 
l16639                                                 
l16641                                                 
l16643                                                 
l16645                                                 
l16647                                                 
l16649                                                 
l16655                                                 
l16657                                                 
l16659                                                 
l16667                                                 
l16669                                                 
l16679                                                 
l16681                                                 
l16685                                                 
l16687                                                 
l16689                                                 
l16691                                                 
l16693                                                 
l16695                                                 
l16697                                                 
l16703                                                 
l16711                                                 
l16713                                                 
l16717                                                 
l16719                                                 
l16731                                                 
l16749                                                 
l16751                                                 
l16759                                                 
l16761                                                 
l16771                                                 
l16773                                                 
l16777                                                 
l16779                                                 
l16781                                                 
l16783                                                 
l16785                                                 
l16787                                                 
l16789                                                 
l16791                                                 
l16795                                                 
l16797                                                 
l16799                                                 
l16801                                                 
l16805                                                 
l16811                                                 
l16817                                                 
l16823                                                 
l16825                                                 
l16831                                                 
l16833                                                 
l16835                                                 
l16843                                                 
l16845                                                 
l16849                                                 
l16851                                                 
l16853                                                 
l16855                                                 
l16857                                                 
l16859                                                 
l16861                                                 
l16863                                                 
l16865                                                 
l16867                                                 
l16869                                                 
l16877                                                 
l16879                                                 
l16883                                                 
l16885                                                 
l16887                                                 
l16889                                                 
l16891                                                 
l16893                                                 
l16895                                                 
l16897                                                 
l16899                                                 
l16909                                                 
l16917                                                 
l16927                                                 
l16929                                                 
l16931                                                 
l16945                                                 
l16947                                                 
l16953                                                 
l16957                                                 
l16959                                                 
l16961                                                 
l16989                                                 
l16997                                                 
l17001                                                 
l17005                                                 
l17007                                                 
l17009                                                 
l17011                                                 
l17013                                                 
l17015                                                 
l17017                                                 
l17019                                                 
l17021                                                 
l17023                                                 
l17025                                                 
l17029                                                 
l17031                                                 
l17033                                                 
l17035                                                 
l17037                                                 
l17039                                                 
l17045                                                 
l17047                                                 
l17049                                                 
l17055                                                 
l17059                                                 
l17071                                                 
l2318                                                  
l2321                                                  
l2339                                                  
l2342                                                  
l2347                                                  
l2350                                                  
l2358                                                  
l2527                                                  
l2534                                                  
l2539                                                  
l3797                                                  
l3804                                                  
l3814                                                  
l3842                                                  
l3930                                                  
l4078                                                  
l4085                                                  
l4090                                                  
l4097                                                  
l5298                                                  
l5301                                                  
l5304                                                  
l5307                                                  
l5310                                                  
l5320                                                  
l5338                                                  
l5353                                                  
l5356                                                  
l5359                                                  
l5366                                                  
l5393                                                  
l5409                                                  
l5413                                                  
l5415                                                  
l5430                                                  
l5434                                                  
l5436                                                  
l5447                                                  
l5452                                                  
l5461                                                  
l5501                                                  
l6645                                                  
l6648                                                  
l6652                                                  
l6655                                                  
l6658                                                  
l6662                                                  
l6665                                                  
l7915                                                  
l7918                                                  
l7921                                                  
l7924                                                  
l7927                                                  
l7946                                                  
l7952                                                  
l7968                                                  
l7978                                                  
main@RxFlag                          cstackBANK1  000E5
main@TxFlag                          cstackBANK1  000E4
reset_vec                            reset_vec    00000
start                                init         00096
start_initialization                 cinit        00099
wtemp0                               (abs)        0007E
